; ModuleID = 'source-C-CXX/27/293.c'
source_filename = "source-C-CXX/27/293.c"
target datalayout = "e-m:e-p270:32:32-p271:32:32-p272:64:64-i64:64-f80:128-n8:16:32:64-S128"
target triple = "x86_64-pc-linux-gnu"

%struct._IO_FILE = type { i32, i8*, i8*, i8*, i8*, i8*, i8*, i8*, i8*, i8*, i8*, i8*, %struct._IO_marker*, %struct._IO_FILE*, i32, i32, i64, i16, i8, [1 x i8], i8*, i64, %struct._IO_codecvt*, %struct._IO_wide_data*, %struct._IO_FILE*, i8*, i64, i32, [20 x i8] }
%struct._IO_marker = type opaque
%struct._IO_codecvt = type opaque
%struct._IO_wide_data = type opaque

@.str = private unnamed_addr constant [3 x i8] c"%s\00", align 1
@.str.1 = private unnamed_addr constant [4 x i8] c"%d\0A\00", align 1
@.str.2 = private unnamed_addr constant [4 x i8] c"%d,\00", align 1
@stdin = external local_unnamed_addr global %struct._IO_FILE*, align 8

; Function Attrs: nofree nounwind sspstrong uwtable
define dso_local void @main() local_unnamed_addr #0 {
  %1 = alloca [300 x [1000 x i8]], align 16
  %2 = alloca [10000 x i32], align 16
  %3 = getelementptr inbounds [300 x [1000 x i8]], [300 x [1000 x i8]]* %1, i64 0, i64 0, i64 0
  call void @llvm.lifetime.start.p0i8(i64 300000, i8* nonnull %3) #4
  %4 = bitcast [10000 x i32]* %2 to i8*
  call void @llvm.lifetime.start.p0i8(i64 40000, i8* nonnull %4) #4
  br label %5

5:                                                ; preds = %5, %0
  %6 = phi i64 [ %12, %5 ], [ 0, %0 ]
  %7 = getelementptr inbounds [300 x [1000 x i8]], [300 x [1000 x i8]]* %1, i64 0, i64 %6, i64 0
  %8 = call i32 (i8*, ...) @__isoc99_scanf(i8* getelementptr inbounds ([3 x i8], [3 x i8]* @.str, i64 0, i64 0), i8* nonnull %7)
  %9 = load %struct._IO_FILE*, %struct._IO_FILE** @stdin, align 8, !tbaa !5
  %10 = call i32 @getc(%struct._IO_FILE* %9) #4
  %11 = icmp eq i32 %10, 10
  %12 = add nuw i64 %6, 1
  br i1 %11, label %13, label %5

13:                                               ; preds = %5
  %14 = add i64 %6, 1
  %15 = and i64 %14, 4294967295
  br label %16

16:                                               ; preds = %13, %16
  %17 = phi i64 [ 0, %13 ], [ %22, %16 ]
  %18 = getelementptr inbounds [300 x [1000 x i8]], [300 x [1000 x i8]]* %1, i64 0, i64 %17, i64 0
  %19 = call i64 @strlen(i8* noundef nonnull %18) #5
  %20 = trunc i64 %19 to i32
  %21 = getelementptr inbounds [10000 x i32], [10000 x i32]* %2, i64 0, i64 %17
  store i32 %20, i32* %21, align 4, !tbaa !9
  %22 = add nuw nsw i64 %17, 1
  %23 = icmp eq i64 %22, %15
  br i1 %23, label %24, label %16, !llvm.loop !11

24:                                               ; preds = %16
  %25 = and i64 %6, 4294967295
  %26 = getelementptr inbounds [10000 x i32], [10000 x i32]* %2, i64 0, i64 %25
  br label %27

27:                                               ; preds = %24, %27
  %28 = phi i64 [ 0, %24 ], [ %35, %27 ]
  %29 = icmp eq i64 %28, %25
  %30 = getelementptr inbounds [10000 x i32], [10000 x i32]* %2, i64 0, i64 %28
  %31 = select i1 %29, i32* %26, i32* %30
  %32 = select i1 %29, i8* getelementptr inbounds ([4 x i8], [4 x i8]* @.str.1, i64 0, i64 0), i8* getelementptr inbounds ([4 x i8], [4 x i8]* @.str.2, i64 0, i64 0)
  %33 = load i32, i32* %31, align 4, !tbaa !9
  %34 = call i32 (i8*, ...) @printf(i8* nonnull dereferenceable(1) %32, i32 %33)
  %35 = add nuw nsw i64 %28, 1
  %36 = icmp eq i64 %35, %15
  br i1 %36, label %37, label %27, !llvm.loop !13

37:                                               ; preds = %27
  call void @llvm.lifetime.end.p0i8(i64 40000, i8* nonnull %4) #4
  call void @llvm.lifetime.end.p0i8(i64 300000, i8* nonnull %3) #4
  ret void
}

; Function Attrs: argmemonly mustprogress nofree nosync nounwind willreturn
declare void @llvm.lifetime.start.p0i8(i64 immarg, i8* nocapture) #1

; Function Attrs: nofree nounwind
declare noundef i32 @__isoc99_scanf(i8* nocapture noundef readonly, ...) local_unnamed_addr #2

; Function Attrs: argmemonly mustprogress nofree nounwind readonly willreturn
declare i64 @strlen(i8* nocapture) local_unnamed_addr #3

; Function Attrs: nofree nounwind
declare noundef i32 @printf(i8* nocapture noundef readonly, ...) local_unnamed_addr #2

; Function Attrs: argmemonly mustprogress nofree nosync nounwind willreturn
declare void @llvm.lifetime.end.p0i8(i64 immarg, i8* nocapture) #1

; Function Attrs: nofree nounwind
declare noundef i32 @getc(%struct._IO_FILE* nocapture noundef) local_unnamed_addr #2


!llvm.module.flags = !{!0, !1, !2, !3}
!llvm.ident = !{!4}

!0 = !{i32 1, !"wchar_size", i32 4}
!1 = !{i32 7, !"PIC Level", i32 2}
!2 = !{i32 7, !"PIE Level", i32 2}
!3 = !{i32 7, !"uwtable", i32 1}
!4 = !{!"clang version 13.0.0"}
!5 = !{!6, !6, i64 0}
!6 = !{!"any pointer", !7, i64 0}
!7 = !{!"omnipotent char", !8, i64 0}
!8 = !{!"Simple C/C++ TBAA"}
!9 = !{!10, !10, i64 0}
!10 = !{!"int", !7, i64 0}
!11 = distinct !{!11, !12}
!12 = !{!"llvm.loop.mustprogress"}
!13 = distinct !{!13, !12}
